target datalayout = "e-m:e-p270:32:32-p271:32:32-p272:64:64-i64:64-i128:128-f80:128-n8:16:32:64-S128"
target triple = "x86_64-pc-linux-gnu"

%struct.psa_key_slot_t = type { %struct.psa_key_attributes_s, i32, i8, %union.anon, %struct.key_data }
%struct.psa_key_attributes_s = type { i16, i16, i32, %struct.psa_key_policy_s, i32 }
%struct.psa_key_policy_s = type { i32, i32, i32 }
%union.anon = type { %struct.anon.0 }
%struct.anon.0 = type { i64 }
%struct.key_data = type { ptr, i64 }

; Function Attrs: inlinehint nounwind uwtable
define internal i32 @psa_key_slot_has_readers(ptr noundef %0) #3 {
  %2 = alloca ptr, align 8
  store ptr %0, ptr %2, align 8, !tbaa !7
  %3 = load ptr, ptr %2, align 8, !tbaa !7
  %4 = getelementptr inbounds nuw %struct.psa_key_slot_t, ptr %3, i32 0, i32 3
  %5 = getelementptr inbounds nuw %struct.anon.0, ptr %4, i32 0, i32 0
  %6 = load i64, ptr %5, align 8, !tbaa !20
  %7 = icmp ugt i64 %6, 0
  %8 = zext i1 %7 to i32
  ret i32 %8
}

; Function Attrs: nounwind uwtable
define hidden i32 @psa_unregister_read(ptr noundef %0) #0 {
  %2 = alloca i32, align 4
  %3 = alloca ptr, align 8
  store ptr %0, ptr %3, align 8, !tbaa !7
  %4 = load ptr, ptr %3, align 8, !tbaa !7
  %5 = icmp eq ptr %4, null
  br i1 %5, label %6, label %7

6:                                                ; preds = %1
  store i32 0, ptr %2, align 4
  br label %43

7:                                                ; preds = %1
  %8 = load ptr, ptr %3, align 8, !tbaa !7
  %9 = getelementptr inbounds nuw %struct.psa_key_slot_t, ptr %8, i32 0, i32 1
  %10 = load i32, ptr %9, align 8, !tbaa !13
  %11 = icmp ne i32 %10, 2
  br i1 %11, label %12, label %18

12:                                               ; preds = %7
  %13 = load ptr, ptr %3, align 8, !tbaa !7
  %14 = getelementptr inbounds nuw %struct.psa_key_slot_t, ptr %13, i32 0, i32 1
  %15 = load i32, ptr %14, align 8, !tbaa !13
  %16 = icmp ne i32 %15, 3
  br i1 %16, label %17, label %18

17:                                               ; preds = %12
  store i32 -151, ptr %2, align 4
  br label %43

18:                                               ; preds = %12, %7
  %19 = load ptr, ptr %3, align 8, !tbaa !7
  %20 = getelementptr inbounds nuw %struct.psa_key_slot_t, ptr %19, i32 0, i32 1
  %21 = load i32, ptr %20, align 8, !tbaa !13
  %22 = icmp eq i32 %21, 3
  br i1 %22, label %23, label %32

23:                                               ; preds = %18
  %24 = load ptr, ptr %3, align 8, !tbaa !7
  %25 = getelementptr inbounds nuw %struct.psa_key_slot_t, ptr %24, i32 0, i32 3
  %26 = getelementptr inbounds nuw %struct.anon.0, ptr %25, i32 0, i32 0
  %27 = load i64, ptr %26, align 8, !tbaa !20
  %28 = icmp eq i64 %27, 1
  br i1 %28, label %29, label %32

29:                                               ; preds = %23
  %30 = load ptr, ptr %3, align 8, !tbaa !7
  %31 = call i32 @psa_wipe_key_slot(ptr noundef %30)
  store i32 %31, ptr %2, align 4
  br label %43

32:                                               ; preds = %23, %18
  %33 = load ptr, ptr %3, align 8, !tbaa !7
  %34 = call i32 @psa_key_slot_has_readers(ptr noundef %33)
  %35 = icmp ne i32 %34, 0
  br i1 %35, label %36, label %42

36:                                               ; preds = %32
  %37 = load ptr, ptr %3, align 8, !tbaa !7
  %38 = getelementptr inbounds nuw %struct.psa_key_slot_t, ptr %37, i32 0, i32 3
  %39 = getelementptr inbounds nuw %struct.anon.0, ptr %38, i32 0, i32 0
  %40 = load i64, ptr %39, align 8, !tbaa !20
  %41 = add i64 %40, -1
  store i64 %41, ptr %39, align 8, !tbaa !20
  store i32 0, ptr %2, align 4
  br label %43

42:                                               ; preds = %32
  store i32 -151, ptr %2, align 4
  br label %43

43:                                               ; preds = %42, %36, %29, %17, %6
  %44 = load i32, ptr %2, align 4
  ret i32 %44
}